target datalayout = "e-m:e-p270:32:32-p271:32:32-p272:64:64-i64:64-i128:128-f80:128-n8:16:32:64-S128"
target triple = "x86_64-pc-linux-gnu"

; Function Attrs: mustprogress nounwind uwtable
define dso_local void @_ZN4absl12log_internal20LogMessageDebugFatalD2Ev(ptr noundef nonnull align 8 dereferenceable(16) %0) unnamed_addr #3 align 2 personality ptr @__gxx_personality_v0 {
  %2 = alloca ptr, align 8
  store ptr %0, ptr %2, align 8, !tbaa !169
  %3 = load ptr, ptr %2, align 8
  invoke void @_ZN4absl12log_internal10LogMessage5FlushEv(ptr noundef nonnull align 8 dereferenceable(16) %3)
          to label %4 unwind label %6

4:                                                ; preds = %1
  invoke void @_ZN4absl12log_internal10LogMessage21FailWithoutStackTraceEv() #27
          to label %5 unwind label %6

5:                                                ; preds = %4
  unreachable

6:                                                ; preds = %4, %1
  %7 = landingpad { ptr, i32 }
          catch ptr null
  %8 = extractvalue { ptr, i32 } %7, 0
  call void @__clang_call_terminate(ptr %8) #25
  unreachable
}